; Function Attrs: mustprogress uwtable
define hidden noundef zeroext i1 @_ZN4cvc58internal6theory2ff5parse14zeroConstraintERKNS0_12NodeTemplateILb1EEE(ptr noundef nonnull align 8 dereferenceable(8) %0) local_unnamed_addr #3 personality ptr @__gxx_personality_v0 {
  %2 = alloca %"class.std::optional", align 8
  %3 = alloca %"class.cvc5::internal::Integer", align 8
  call void @llvm.lifetime.start.p0(i64 88, ptr nonnull %2) #20
  call fastcc void @_ZN4cvc58internal6theory2ff5parse12_GLOBAL__N_18spectrumERKNS0_12NodeTemplateILb1EEEh(ptr dead_on_unwind noalias writable align 8 %2, ptr noundef nonnull align 8 dereferenceable(8) %0, i8 noundef zeroext 5)
  %4 = getelementptr inbounds nuw i8, ptr %2, i64 80
  %.val = load i8, ptr %4, align 8, !tbaa !3, !range !8, !noundef !9
  %5 = trunc nuw i8 %.val to i1
  %6 = getelementptr inbounds nuw i8, ptr %2, i64 8
  %7 = load i8, ptr %6, align 8
  %8 = icmp eq i8 %7, 1
  %or.cond = select i1 %5, i1 %8, i1 false
  br i1 %or.cond, label %9, label %.critedge

9:                                                ; preds = %1
  %10 = getelementptr inbounds nuw i8, ptr %2, i64 16
  %11 = invoke noundef nonnull align 8 dereferenceable(16) ptr @_ZNK4cvc58internal16FiniteFieldValue8getValueEv(ptr noundef nonnull align 8 dereferenceable(32) %10)
          to label %12 unwind label %22

12:                                               ; preds = %9
  call void @llvm.lifetime.start.p0(i64 16, ptr nonnull %3) #20
  call void @__gmpz_init(ptr noundef nonnull align 8 dereferenceable(16) %3) #20
  %13 = invoke noundef zeroext i1 @_ZNK4cvc58internal7IntegereqERKS1_(ptr noundef nonnull align 8 dereferenceable(16) %11, ptr noundef nonnull align 8 dereferenceable(16) %3)
          to label %14 unwind label %24

14:                                               ; preds = %12
  invoke void @__gmpz_clear(ptr noundef nonnull align 8 dereferenceable(16) %3)
          to label %_ZN4cvc58internal7IntegerD2Ev.exit unwind label %15

15:                                               ; preds = %14
  %16 = landingpad { ptr, i32 }
          catch ptr null
  %17 = extractvalue { ptr, i32 } %16, 0
  call void @__clang_call_terminate(ptr %17) #21
  unreachable

_ZN4cvc58internal7IntegerD2Ev.exit:               ; preds = %14
  call void @llvm.lifetime.end.p0(i64 16, ptr nonnull %3) #20
  %.pre = load i8, ptr %4, align 8, !tbaa !3, !range !8
  br label %.critedge

.critedge:                                        ; preds = %1, %_ZN4cvc58internal7IntegerD2Ev.exit
  %18 = phi i8 [ %.pre, %_ZN4cvc58internal7IntegerD2Ev.exit ], [ %.val, %1 ]
  %19 = phi i1 [ %13, %_ZN4cvc58internal7IntegerD2Ev.exit ], [ false, %1 ]
  %20 = trunc nuw i8 %18 to i1
  br i1 %20, label %21, label %_ZNSt14_Optional_baseIN4cvc58internal6theory2ff5parse12_GLOBAL__N_18SpectrumELb0ELb0EED2Ev.exit

21:                                               ; preds = %.critedge
  store i8 0, ptr %4, align 8, !tbaa !3
  call fastcc void @_ZN4cvc58internal6theory2ff5parse12_GLOBAL__N_18SpectrumD2Ev(ptr noundef nonnull align 8 dereferenceable(88) %2) #20
  br label %_ZNSt14_Optional_baseIN4cvc58internal6theory2ff5parse12_GLOBAL__N_18SpectrumELb0ELb0EED2Ev.exit

_ZNSt14_Optional_baseIN4cvc58internal6theory2ff5parse12_GLOBAL__N_18SpectrumELb0ELb0EED2Ev.exit: ; preds = %.critedge, %21
  call void @llvm.lifetime.end.p0(i64 88, ptr nonnull %2) #20
  ret i1 %19

22:                                               ; preds = %9
  %23 = landingpad { ptr, i32 }
          cleanup
  br label %29

24:                                               ; preds = %12
  %25 = landingpad { ptr, i32 }
          cleanup
  invoke void @__gmpz_clear(ptr noundef nonnull align 8 dereferenceable(16) %3)
          to label %_ZN4cvc58internal7IntegerD2Ev.exit13 unwind label %26

26:                                               ; preds = %24
  %27 = landingpad { ptr, i32 }
          catch ptr null
  %28 = extractvalue { ptr, i32 } %27, 0
  call void @__clang_call_terminate(ptr %28) #21
  unreachable

_ZN4cvc58internal7IntegerD2Ev.exit13:             ; preds = %24
  call void @llvm.lifetime.end.p0(i64 16, ptr nonnull %3) #20
  br label %29

29:                                               ; preds = %_ZN4cvc58internal7IntegerD2Ev.exit13, %22
  %.pn.pn = phi { ptr, i32 } [ %25, %_ZN4cvc58internal7IntegerD2Ev.exit13 ], [ %23, %22 ]
  %30 = load i8, ptr %4, align 8, !tbaa !3, !range !8, !noundef !9
  %31 = trunc nuw i8 %30 to i1
  br i1 %31, label %32, label %_ZNSt14_Optional_baseIN4cvc58internal6theory2ff5parse12_GLOBAL__N_18SpectrumELb0ELb0EED2Ev.exit14

32:                                               ; preds = %29
  store i8 0, ptr %4, align 8, !tbaa !3
  call fastcc void @_ZN4cvc58internal6theory2ff5parse12_GLOBAL__N_18SpectrumD2Ev(ptr noundef nonnull align 8 dereferenceable(88) %2) #20
  br label %_ZNSt14_Optional_baseIN4cvc58internal6theory2ff5parse12_GLOBAL__N_18SpectrumELb0ELb0EED2Ev.exit14

_ZNSt14_Optional_baseIN4cvc58internal6theory2ff5parse12_GLOBAL__N_18SpectrumELb0ELb0EED2Ev.exit14: ; preds = %29, %32
  call void @llvm.lifetime.end.p0(i64 88, ptr nonnull %2) #20
  resume { ptr, i32 } %.pn.pn
}